target datalayout = "e-m:e-p270:32:32-p271:32:32-p272:64:64-i64:64-i128:128-f80:128-n8:16:32:64-S128"
target triple = "x86_64-pc-linux-gnu"

%struct.anon = type { i32, [0 x i8] }
%struct.StringInfoData = type { ptr, i32, i32, i32 }

@.str.1 = private unnamed_addr constant [10 x i8] c"genfile.c\00", align 1
@.str.19 = private unnamed_addr constant [27 x i8] c"requested length too large\00", align 1
@__func__.read_binary_file = private unnamed_addr constant [17 x i8] c"read_binary_file\00", align 1
@.str.20 = private unnamed_addr constant [2 x i8] c"r\00", align 1
@.str.21 = private unnamed_addr constant [41 x i8] c"could not open file \22%s\22 for reading: %m\00", align 1
@.str.22 = private unnamed_addr constant [32 x i8] c"could not seek in file \22%s\22: %m\00", align 1
@.str.23 = private unnamed_addr constant [22 x i8] c"file length too large\00", align 1
@.str.24 = private unnamed_addr constant [29 x i8] c"could not read file \22%s\22: %m\00", align 1

; Function Attrs: nounwind uwtable
define internal ptr @read_binary_file(ptr noundef %0, i64 noundef %1, i64 noundef %2, i1 noundef zeroext %3) #0 {
  %5 = alloca ptr, align 8
  %6 = alloca ptr, align 8
  %7 = alloca i64, align 8
  %8 = alloca i64, align 8
  %9 = alloca i8, align 1
  %10 = alloca ptr, align 8
  %11 = alloca i64, align 8
  %12 = alloca ptr, align 8
  %13 = alloca i32, align 4
  %14 = alloca %struct.StringInfoData, align 8
  %15 = alloca i64, align 8
  %16 = alloca [1 x i8], align 1
  store ptr %0, ptr %6, align 8
  store i64 %1, ptr %7, align 8
  store i64 %2, ptr %8, align 8
  %17 = zext i1 %3 to i8
  store i8 %17, ptr %9, align 1
  call void @llvm.lifetime.start.p0(i64 8, ptr %10) #9
  call void @llvm.lifetime.start.p0(i64 8, ptr %11) #9
  store i64 0, ptr %11, align 8
  call void @llvm.lifetime.start.p0(i64 8, ptr %12) #9
  %18 = load i64, ptr %8, align 8
  %19 = icmp sgt i64 %18, 1073741819
  br i1 %19, label %20, label %32

20:                                               ; preds = %4
  br label %21

21:                                               ; preds = %20
  br i1 true, label %22, label %24

22:                                               ; preds = %21
  %23 = call zeroext i1 @errstart_cold(i32 noundef 21, ptr noundef null) #10
  br i1 %23, label %26, label %29

24:                                               ; preds = %21
  %25 = call zeroext i1 @errstart(i32 noundef 21, ptr noundef null)
  br i1 %25, label %26, label %29

26:                                               ; preds = %24, %22
  %27 = call i32 @errcode(i32 noundef 50856066)
  %28 = call i32 (ptr, ...) @errmsg(ptr noundef @.str.19)
  call void @errfinish(ptr noundef @.str.1, i32 noundef 114, ptr noundef @__func__.read_binary_file)
  br label %29

29:                                               ; preds = %26, %24, %22
  unreachable

30:                                               ; No predecessors!
  br label %31

31:                                               ; preds = %30
  br label %32

32:                                               ; preds = %31, %4
  %33 = load ptr, ptr %6, align 8
  %34 = call ptr @AllocateFile(ptr noundef %33, ptr noundef @.str.20)
  store ptr %34, ptr %12, align 8
  %35 = icmp eq ptr %34, null
  br i1 %35, label %36, label %58

36:                                               ; preds = %32
  %37 = load i8, ptr %9, align 1, !range !4, !noundef !5
  %38 = trunc i8 %37 to i1
  br i1 %38, label %39, label %44

39:                                               ; preds = %36
  %40 = call ptr @__errno_location() #11
  %41 = load i32, ptr %40, align 4
  %42 = icmp eq i32 %41, 2
  br i1 %42, label %43, label %44

43:                                               ; preds = %39
  store ptr null, ptr %5, align 8
  store i32 1, ptr %13, align 4
  br label %196

44:                                               ; preds = %39, %36
  br label %45

45:                                               ; preds = %44
  br i1 true, label %46, label %48

46:                                               ; preds = %45
  %47 = call zeroext i1 @errstart_cold(i32 noundef 21, ptr noundef null) #10
  br i1 %47, label %50, label %54

48:                                               ; preds = %45
  %49 = call zeroext i1 @errstart(i32 noundef 21, ptr noundef null)
  br i1 %49, label %50, label %54

50:                                               ; preds = %48, %46
  %51 = call i32 @errcode_for_file_access()
  %52 = load ptr, ptr %6, align 8
  %53 = call i32 (ptr, ...) @errmsg(ptr noundef @.str.21, ptr noundef %52)
  call void @errfinish(ptr noundef @.str.1, i32 noundef 124, ptr noundef @__func__.read_binary_file)
  br label %54

54:                                               ; preds = %50, %48, %46
  unreachable

55:                                               ; No predecessors!
  br label %56

56:                                               ; preds = %55
  br label %57

57:                                               ; preds = %56
  br label %58

58:                                               ; preds = %57, %32
  %59 = load ptr, ptr %12, align 8
  %60 = load i64, ptr %7, align 8
  %61 = load i64, ptr %7, align 8
  %62 = icmp sge i64 %61, 0
  %63 = select i1 %62, i32 0, i32 2
  %64 = call i32 @fseeko(ptr noundef %59, i64 noundef %60, i32 noundef %63)
  %65 = icmp ne i32 %64, 0
  br i1 %65, label %66, label %79

66:                                               ; preds = %58
  br label %67

67:                                               ; preds = %66
  br i1 true, label %68, label %70

68:                                               ; preds = %67
  %69 = call zeroext i1 @errstart_cold(i32 noundef 21, ptr noundef null) #10
  br i1 %69, label %72, label %76

70:                                               ; preds = %67
  %71 = call zeroext i1 @errstart(i32 noundef 21, ptr noundef null)
  br i1 %71, label %72, label %76

72:                                               ; preds = %70, %68
  %73 = call i32 @errcode_for_file_access()
  %74 = load ptr, ptr %6, align 8
  %75 = call i32 (ptr, ...) @errmsg(ptr noundef @.str.22, ptr noundef %74)
  call void @errfinish(ptr noundef @.str.1, i32 noundef 131, ptr noundef @__func__.read_binary_file)
  br label %76

76:                                               ; preds = %72, %70, %68
  unreachable

77:                                               ; No predecessors!
  br label %78

78:                                               ; preds = %77
  br label %79

79:                                               ; preds = %78, %58
  %80 = load i64, ptr %8, align 8
  %81 = icmp sge i64 %80, 0
  br i1 %81, label %82, label %92

82:                                               ; preds = %79
  %83 = load i64, ptr %8, align 8
  %84 = add i64 %83, 4
  %85 = call ptr @palloc(i64 noundef %84)
  store ptr %85, ptr %10, align 8
  %86 = load ptr, ptr %10, align 8
  %87 = getelementptr inbounds nuw %struct.anon, ptr %86, i32 0, i32 1
  %88 = getelementptr inbounds [0 x i8], ptr %87, i64 0, i64 0
  %89 = load i64, ptr %8, align 8
  %90 = load ptr, ptr %12, align 8
  %91 = call i64 @fread(ptr noundef %88, i64 noundef 1, i64 noundef %89, ptr noundef %90)
  store i64 %91, ptr %11, align 8
  br label %169

92:                                               ; preds = %79
  call void @llvm.lifetime.start.p0(i64 24, ptr %14) #9
  call void @initStringInfo(ptr noundef %14)
  %93 = getelementptr inbounds nuw %struct.StringInfoData, ptr %14, i32 0, i32 1
  %94 = load i32, ptr %93, align 8
  %95 = add i32 %94, 4
  store i32 %95, ptr %93, align 8
  br label %96

96:                                               ; preds = %165, %92
  %97 = load ptr, ptr %12, align 8
  %98 = call i32 @feof(ptr noundef %97) #9
  %99 = icmp ne i32 %98, 0
  br i1 %99, label %104, label %100

100:                                              ; preds = %96
  %101 = load ptr, ptr %12, align 8
  %102 = call i32 @ferror(ptr noundef %101) #9
  %103 = icmp ne i32 %102, 0
  br label %104

104:                                              ; preds = %100, %96
  %105 = phi i1 [ true, %96 ], [ %103, %100 ]
  %106 = xor i1 %105, true
  br i1 %106, label %107, label %166

107:                                              ; preds = %104
  call void @llvm.lifetime.start.p0(i64 8, ptr %15) #9
  %108 = getelementptr inbounds nuw %struct.StringInfoData, ptr %14, i32 0, i32 1
  %109 = load i32, ptr %108, align 8
  %110 = sext i32 %109 to i64
  %111 = icmp eq i64 %110, 1073741822
  br i1 %111, label %112, label %138

112:                                              ; preds = %107
  call void @llvm.lifetime.start.p0(i64 1, ptr %16) #9
  %113 = getelementptr inbounds [1 x i8], ptr %16, i64 0, i64 0
  %114 = load ptr, ptr %12, align 8
  %115 = call i64 @fread(ptr noundef %113, i64 noundef 1, i64 noundef 1, ptr noundef %114)
  %116 = icmp ne i64 %115, 0
  br i1 %116, label %121, label %117

117:                                              ; preds = %112
  %118 = load ptr, ptr %12, align 8
  %119 = call i32 @feof(ptr noundef %118) #9
  %120 = icmp ne i32 %119, 0
  br i1 %120, label %133, label %121

121:                                              ; preds = %117, %112
  br label %122

122:                                              ; preds = %121
  br i1 true, label %123, label %125

123:                                              ; preds = %122
  %124 = call zeroext i1 @errstart_cold(i32 noundef 21, ptr noundef null) #10
  br i1 %124, label %127, label %130

125:                                              ; preds = %122
  %126 = call zeroext i1 @errstart(i32 noundef 21, ptr noundef null)
  br i1 %126, label %127, label %130

127:                                              ; preds = %125, %123
  %128 = call i32 @errcode(i32 noundef 261)
  %129 = call i32 (ptr, ...) @errmsg(ptr noundef @.str.23)
  call void @errfinish(ptr noundef @.str.1, i32 noundef 171, ptr noundef @__func__.read_binary_file)
  br label %130

130:                                              ; preds = %127, %125, %123
  unreachable

131:                                              ; No predecessors!
  br label %132

132:                                              ; preds = %131
  br label %134

133:                                              ; preds = %117
  store i32 9, ptr %13, align 4
  br label %135

134:                                              ; preds = %132
  store i32 0, ptr %13, align 4
  br label %135

135:                                              ; preds = %134, %133
  call void @llvm.lifetime.end.p0(i64 1, ptr %16) #9
  %136 = load i32, ptr %13, align 4
  switch i32 %136, label %163 [
    i32 0, label %137
  ]

137:                                              ; preds = %135
  br label %138

138:                                              ; preds = %137, %107
  call void @enlargeStringInfo(ptr noundef %14, i32 noundef 4096)
  %139 = getelementptr inbounds nuw %struct.StringInfoData, ptr %14, i32 0, i32 0
  %140 = load ptr, ptr %139, align 8
  %141 = getelementptr inbounds nuw %struct.StringInfoData, ptr %14, i32 0, i32 1
  %142 = load i32, ptr %141, align 8
  %143 = sext i32 %142 to i64
  %144 = getelementptr inbounds i8, ptr %140, i64 %143
  %145 = getelementptr inbounds nuw %struct.StringInfoData, ptr %14, i32 0, i32 2
  %146 = load i32, ptr %145, align 4
  %147 = getelementptr inbounds nuw %struct.StringInfoData, ptr %14, i32 0, i32 1
  %148 = load i32, ptr %147, align 8
  %149 = sub i32 %146, %148
  %150 = sub i32 %149, 1
  %151 = sext i32 %150 to i64
  %152 = load ptr, ptr %12, align 8
  %153 = call i64 @fread(ptr noundef %144, i64 noundef 1, i64 noundef %151, ptr noundef %152)
  store i64 %153, ptr %15, align 8
  %154 = load i64, ptr %15, align 8
  %155 = getelementptr inbounds nuw %struct.StringInfoData, ptr %14, i32 0, i32 1
  %156 = load i32, ptr %155, align 8
  %157 = sext i32 %156 to i64
  %158 = add i64 %157, %154
  %159 = trunc i64 %158 to i32
  store i32 %159, ptr %155, align 8
  %160 = load i64, ptr %15, align 8
  %161 = load i64, ptr %11, align 8
  %162 = add i64 %161, %160
  store i64 %162, ptr %11, align 8
  store i32 0, ptr %13, align 4
  br label %163

163:                                              ; preds = %138, %135
  call void @llvm.lifetime.end.p0(i64 8, ptr %15) #9
  %164 = load i32, ptr %13, align 4
  switch i32 %164, label %198 [
    i32 0, label %165
    i32 9, label %166
  ]

165:                                              ; preds = %163
  br label %96, !llvm.loop !9

166:                                              ; preds = %163, %104
  %167 = getelementptr inbounds nuw %struct.StringInfoData, ptr %14, i32 0, i32 0
  %168 = load ptr, ptr %167, align 8
  store ptr %168, ptr %10, align 8
  call void @llvm.lifetime.end.p0(i64 24, ptr %14) #9
  br label %169

169:                                              ; preds = %166, %82
  %170 = load ptr, ptr %12, align 8
  %171 = call i32 @ferror(ptr noundef %170) #9
  %172 = icmp ne i32 %171, 0
  br i1 %172, label %173, label %186

173:                                              ; preds = %169
  br label %174

174:                                              ; preds = %173
  br i1 true, label %175, label %177

175:                                              ; preds = %174
  %176 = call zeroext i1 @errstart_cold(i32 noundef 21, ptr noundef null) #10
  br i1 %176, label %179, label %183

177:                                              ; preds = %174
  %178 = call zeroext i1 @errstart(i32 noundef 21, ptr noundef null)
  br i1 %178, label %179, label %183

179:                                              ; preds = %177, %175
  %180 = call i32 @errcode_for_file_access()
  %181 = load ptr, ptr %6, align 8
  %182 = call i32 (ptr, ...) @errmsg(ptr noundef @.str.24, ptr noundef %181)
  call void @errfinish(ptr noundef @.str.1, i32 noundef 197, ptr noundef @__func__.read_binary_file)
  br label %183

183:                                              ; preds = %179, %177, %175
  unreachable

184:                                              ; No predecessors!
  br label %185

185:                                              ; preds = %184
  br label %186

186:                                              ; preds = %185, %169
  %187 = load i64, ptr %11, align 8
  %188 = add i64 %187, 4
  %189 = trunc i64 %188 to i32
  %190 = shl i32 %189, 2
  %191 = load ptr, ptr %10, align 8
  %192 = getelementptr inbounds nuw %struct.anon, ptr %191, i32 0, i32 0
  store i32 %190, ptr %192, align 4
  %193 = load ptr, ptr %12, align 8
  %194 = call i32 @FreeFile(ptr noundef %193)
  %195 = load ptr, ptr %10, align 8
  store ptr %195, ptr %5, align 8
  store i32 1, ptr %13, align 4
  br label %196

196:                                              ; preds = %186, %43
  call void @llvm.lifetime.end.p0(i64 8, ptr %12) #9
  call void @llvm.lifetime.end.p0(i64 8, ptr %11) #9
  call void @llvm.lifetime.end.p0(i64 8, ptr %10) #9
  %197 = load ptr, ptr %5, align 8
  ret ptr %197

198:                                              ; preds = %163
  unreachable
}