; Function Attrs: nounwind uwtable
define internal fastcc ptr @read_binary_file(ptr noundef %0, i64 noundef %1, i64 noundef %2, i1 noundef zeroext %3) unnamed_addr #0 {
  %5 = alloca %struct.StringInfoData, align 8
  %6 = alloca [1 x i8], align 1
  %7 = icmp sgt i64 %2, 1073741819
  br i1 %7, label %8, label %12

8:                                                ; preds = %4
  %9 = tail call zeroext i1 @errstart_cold(i32 noundef 21, ptr noundef null) #10
  tail call void @llvm.assume(i1 %9)
  %10 = tail call i32 @errcode(i32 noundef 50856066) #9
  %11 = tail call i32 (ptr, ...) @errmsg(ptr noundef nonnull @.str.19) #9
  tail call void @errfinish(ptr noundef nonnull @.str.1, i32 noundef 114, ptr noundef nonnull @__func__.read_binary_file) #9
  unreachable

12:                                               ; preds = %4
  %13 = tail call ptr @AllocateFile(ptr noundef %0, ptr noundef nonnull @.str.20) #9
  %14 = icmp eq ptr %13, null
  br i1 %14, label %15, label %24

15:                                               ; preds = %12
  br i1 %3, label %16, label %20

16:                                               ; preds = %15
  %17 = tail call ptr @__errno_location() #11
  %18 = load i32, ptr %17, align 4
  %19 = icmp eq i32 %18, 2
  br i1 %19, label %87, label %20

20:                                               ; preds = %16, %15
  %21 = tail call zeroext i1 @errstart_cold(i32 noundef 21, ptr noundef null) #10
  tail call void @llvm.assume(i1 %21)
  %22 = tail call i32 @errcode_for_file_access() #9
  %23 = tail call i32 (ptr, ...) @errmsg(ptr noundef nonnull @.str.21, ptr noundef %0) #9
  tail call void @errfinish(ptr noundef nonnull @.str.1, i32 noundef 124, ptr noundef nonnull @__func__.read_binary_file) #9
  unreachable

24:                                               ; preds = %12
  %25 = lshr i64 %1, 62
  %26 = trunc nuw nsw i64 %25 to i32
  %27 = and i32 %26, 2
  %28 = tail call i32 @fseeko(ptr noundef nonnull %13, i64 noundef %1, i32 noundef %27)
  %.not = icmp eq i32 %28, 0
  br i1 %.not, label %33, label %29

29:                                               ; preds = %24
  %30 = tail call zeroext i1 @errstart_cold(i32 noundef 21, ptr noundef null) #10
  tail call void @llvm.assume(i1 %30)
  %31 = tail call i32 @errcode_for_file_access() #9
  %32 = tail call i32 (ptr, ...) @errmsg(ptr noundef nonnull @.str.22, ptr noundef %0) #9
  tail call void @errfinish(ptr noundef nonnull @.str.1, i32 noundef 131, ptr noundef nonnull @__func__.read_binary_file) #9
  unreachable

33:                                               ; preds = %24
  %34 = icmp sgt i64 %2, -1
  br i1 %34, label %35, label %40

35:                                               ; preds = %33
  %36 = add nuw nsw i64 %2, 4
  %37 = tail call ptr @palloc(i64 noundef %36) #9
  %38 = getelementptr inbounds nuw i8, ptr %37, i64 4
  %39 = tail call i64 @fread(ptr noundef nonnull %38, i64 noundef 1, i64 noundef %2, ptr noundef nonnull %13)
  br label %76

40:                                               ; preds = %33
  call void @llvm.lifetime.start.p0(i64 24, ptr nonnull %5) #9
  call void @initStringInfo(ptr noundef nonnull %5) #9
  %41 = getelementptr inbounds nuw i8, ptr %5, i64 8
  %42 = load i32, ptr %41, align 8
  %43 = add i32 %42, 4
  store i32 %43, ptr %41, align 8
  %44 = call i32 @feof(ptr noundef nonnull %13) #9
  %.not3443 = icmp eq i32 %44, 0
  br i1 %.not3443, label %.lr.ph, label %.critedge

.lr.ph:                                           ; preds = %40
  %45 = getelementptr inbounds nuw i8, ptr %5, i64 12
  br label %46

46:                                               ; preds = %.lr.ph, %60
  %.144 = phi i64 [ 0, %.lr.ph ], [ %73, %60 ]
  %47 = call i32 @ferror(ptr noundef nonnull %13) #9
  %48 = icmp eq i32 %47, 0
  br i1 %48, label %49, label %.critedge

49:                                               ; preds = %46
  %50 = load i32, ptr %41, align 8
  %51 = icmp eq i32 %50, 1073741822
  br i1 %51, label %52, label %60

52:                                               ; preds = %49
  call void @llvm.lifetime.start.p0(i64 1, ptr nonnull %6) #9
  %53 = call i64 @fread(ptr noundef nonnull %6, i64 noundef 1, i64 noundef 1, ptr noundef nonnull %13)
  %.not35 = icmp eq i64 %53, 0
  br i1 %.not35, label %54, label %56

54:                                               ; preds = %52
  %55 = call i32 @feof(ptr noundef nonnull %13) #9
  %.not36 = icmp eq i32 %55, 0
  br i1 %.not36, label %56, label %.thread

56:                                               ; preds = %54, %52
  %57 = call zeroext i1 @errstart_cold(i32 noundef 21, ptr noundef null) #10
  call void @llvm.assume(i1 %57)
  %58 = call i32 @errcode(i32 noundef 261) #9
  %59 = call i32 (ptr, ...) @errmsg(ptr noundef nonnull @.str.23) #9
  call void @errfinish(ptr noundef nonnull @.str.1, i32 noundef 171, ptr noundef nonnull @__func__.read_binary_file) #9
  unreachable

.thread:                                          ; preds = %54
  call void @llvm.lifetime.end.p0(i64 1, ptr nonnull %6) #9
  br label %.critedge

60:                                               ; preds = %49
  call void @enlargeStringInfo(ptr noundef nonnull %5, i32 noundef 4096) #9
  %61 = load ptr, ptr %5, align 8
  %62 = load i32, ptr %41, align 8
  %63 = sext i32 %62 to i64
  %64 = getelementptr inbounds i8, ptr %61, i64 %63
  %65 = load i32, ptr %45, align 4
  %66 = xor i32 %62, -1
  %67 = add i32 %65, %66
  %68 = sext i32 %67 to i64
  %69 = call i64 @fread(ptr noundef %64, i64 noundef 1, i64 noundef %68, ptr noundef nonnull %13)
  %70 = load i32, ptr %41, align 8
  %71 = trunc i64 %69 to i32
  %72 = add i32 %70, %71
  store i32 %72, ptr %41, align 8
  %73 = add i64 %69, %.144
  %74 = call i32 @feof(ptr noundef nonnull %13) #9
  %.not34 = icmp eq i32 %74, 0
  br i1 %.not34, label %46, label %.critedge

.critedge:                                        ; preds = %46, %60, %40, %.thread
  %.142 = phi i64 [ %.144, %.thread ], [ 0, %40 ], [ %.144, %46 ], [ %73, %60 ]
  %75 = load ptr, ptr %5, align 8
  call void @llvm.lifetime.end.p0(i64 24, ptr nonnull %5) #9
  br label %76

76:                                               ; preds = %.critedge, %35
  %.031 = phi i64 [ %39, %35 ], [ %.142, %.critedge ]
  %.030 = phi ptr [ %37, %35 ], [ %75, %.critedge ]
  %77 = call i32 @ferror(ptr noundef nonnull %13) #9
  %.not37 = icmp eq i32 %77, 0
  br i1 %.not37, label %82, label %78

78:                                               ; preds = %76
  %79 = call zeroext i1 @errstart_cold(i32 noundef 21, ptr noundef null) #10
  call void @llvm.assume(i1 %79)
  %80 = call i32 @errcode_for_file_access() #9
  %81 = call i32 (ptr, ...) @errmsg(ptr noundef nonnull @.str.24, ptr noundef %0) #9
  call void @errfinish(ptr noundef nonnull @.str.1, i32 noundef 197, ptr noundef nonnull @__func__.read_binary_file) #9
  unreachable

82:                                               ; preds = %76
  %83 = trunc i64 %.031 to i32
  %84 = shl i32 %83, 2
  %85 = add i32 %84, 16
  store i32 %85, ptr %.030, align 4
  %86 = call i32 @FreeFile(ptr noundef nonnull %13) #9
  br label %87

87:                                               ; preds = %16, %82
  %.0 = phi ptr [ %.030, %82 ], [ null, %16 ]
  ret ptr %.0
}